; Function Attrs: uwtable
define noundef i32 @_ZTv0_n40_NK14duckdb_parquet11Float16Type5writeEPN13duckdb_apache6thrift8protocol9TProtocolE(ptr noundef readonly captures(none) %0, ptr noundef %1) unnamed_addr #11 align 2 personality ptr @__gxx_personality_v0 {
  %3 = getelementptr inbounds nuw i8, ptr %1, i64 32
  %4 = load i32, ptr %3, align 8, !tbaa !86
  %5 = getelementptr inbounds nuw i8, ptr %1, i64 28
  %6 = load i32, ptr %5, align 4, !tbaa !108
  %7 = add i32 %6, 1
  store i32 %7, ptr %5, align 4, !tbaa !108
  %8 = icmp ult i32 %4, %7
  br i1 %8, label %9, label %_ZN13duckdb_apache6thrift8protocol23TOutputRecursionTrackerC2ERNS1_9TProtocolE.exit.i

9:                                                ; preds = %2
  %10 = tail call ptr @__cxa_allocate_exception(i64 48) #26
  %11 = getelementptr inbounds nuw i8, ptr %10, i64 8
  %12 = getelementptr inbounds nuw i8, ptr %10, i64 24
  store ptr %12, ptr %11, align 8, !tbaa !33
  %13 = getelementptr inbounds nuw i8, ptr %10, i64 16
  store i64 0, ptr %13, align 8, !tbaa !39
  store i8 0, ptr %12, align 1, !tbaa !38
  store ptr getelementptr inbounds nuw inrange(-16, 24) (i8, ptr @_ZTVN13duckdb_apache6thrift8protocol18TProtocolExceptionE, i64 16), ptr %10, align 8, !tbaa !22
  %14 = getelementptr inbounds nuw i8, ptr %10, i64 40
  store i32 6, ptr %14, align 8, !tbaa !94
  tail call void @__cxa_throw(ptr nonnull %10, ptr nonnull @_ZTIN13duckdb_apache6thrift8protocol18TProtocolExceptionE, ptr nonnull @_ZN13duckdb_apache6thrift10TExceptionD2Ev) #27
  unreachable

_ZN13duckdb_apache6thrift8protocol23TOutputRecursionTrackerC2ERNS1_9TProtocolE.exit.i: ; preds = %2
  %15 = load ptr, ptr %1, align 8, !tbaa !22
  %16 = getelementptr inbounds nuw i8, ptr %15, i64 32
  %17 = load ptr, ptr %16, align 8
  %18 = invoke noundef i32 %17(ptr noundef nonnull align 8 dereferenceable(36) %1, ptr noundef nonnull @.str.104)
          to label %_ZN13duckdb_apache6thrift8protocol9TProtocol16writeStructBeginEPKc.exit.i unwind label %27

_ZN13duckdb_apache6thrift8protocol9TProtocol16writeStructBeginEPKc.exit.i: ; preds = %_ZN13duckdb_apache6thrift8protocol23TOutputRecursionTrackerC2ERNS1_9TProtocolE.exit.i
  %19 = load ptr, ptr %1, align 8, !tbaa !22
  %20 = getelementptr inbounds nuw i8, ptr %19, i64 64
  %21 = load ptr, ptr %20, align 8
  %22 = invoke noundef i32 %21(ptr noundef nonnull align 8 dereferenceable(36) %1)
          to label %_ZN13duckdb_apache6thrift8protocol9TProtocol14writeFieldStopEv.exit.i unwind label %27

_ZN13duckdb_apache6thrift8protocol9TProtocol14writeFieldStopEv.exit.i: ; preds = %_ZN13duckdb_apache6thrift8protocol9TProtocol16writeStructBeginEPKc.exit.i
  %23 = load ptr, ptr %1, align 8, !tbaa !22
  %24 = getelementptr inbounds nuw i8, ptr %23, i64 40
  %25 = load ptr, ptr %24, align 8
  %26 = invoke noundef i32 %25(ptr noundef nonnull align 8 dereferenceable(36) %1)
          to label %_ZNK14duckdb_parquet11Float16Type5writeEPN13duckdb_apache6thrift8protocol9TProtocolE.exit unwind label %27

27:                                               ; preds = %_ZN13duckdb_apache6thrift8protocol9TProtocol14writeFieldStopEv.exit.i, %_ZN13duckdb_apache6thrift8protocol9TProtocol16writeStructBeginEPKc.exit.i, %_ZN13duckdb_apache6thrift8protocol23TOutputRecursionTrackerC2ERNS1_9TProtocolE.exit.i
  %28 = landingpad { ptr, i32 }
          cleanup
  %29 = load i32, ptr %5, align 4, !tbaa !108
  %30 = add i32 %29, -1
  store i32 %30, ptr %5, align 4, !tbaa !108
  resume { ptr, i32 } %28

_ZNK14duckdb_parquet11Float16Type5writeEPN13duckdb_apache6thrift8protocol9TProtocolE.exit: ; preds = %_ZN13duckdb_apache6thrift8protocol9TProtocol14writeFieldStopEv.exit.i
  %31 = add i32 %22, %18
  %32 = add i32 %31, %26
  %33 = load i32, ptr %5, align 4, !tbaa !108
  %34 = add i32 %33, -1
  store i32 %34, ptr %5, align 4, !tbaa !108
  ret i32 %32
}